target datalayout = "e-m:e-p270:32:32-p271:32:32-p272:64:64-i64:64-i128:128-f80:128-n8:16:32:64-S128"
target triple = "x86_64-pc-linux-gnu"

%struct.LOCKTAG = type { i32, i32, i32, i16, i8, i8 }

; Function Attrs: nounwind uwtable
define dso_local zeroext i1 @ConditionalLockSharedObject(i32 noundef %0, i32 noundef %1, i16 noundef zeroext %2, i32 noundef %3) #0 {
  %5 = alloca i1, align 1
  %6 = alloca i32, align 4
  %7 = alloca i32, align 4
  %8 = alloca i16, align 2
  %9 = alloca i32, align 4
  %10 = alloca %struct.LOCKTAG, align 4
  %11 = alloca ptr, align 8
  %12 = alloca i32, align 4
  %13 = alloca i32, align 4
  store i32 %0, ptr %6, align 4
  store i32 %1, ptr %7, align 4
  store i16 %2, ptr %8, align 2
  store i32 %3, ptr %9, align 4
  call void @llvm.lifetime.start.p0(i64 16, ptr %10) #6
  call void @llvm.lifetime.start.p0(i64 8, ptr %11) #6
  call void @llvm.lifetime.start.p0(i64 4, ptr %12) #6
  %14 = getelementptr inbounds nuw %struct.LOCKTAG, ptr %10, i32 0, i32 0
  store i32 0, ptr %14, align 4
  %15 = load i32, ptr %6, align 4
  %16 = getelementptr inbounds nuw %struct.LOCKTAG, ptr %10, i32 0, i32 1
  store i32 %15, ptr %16, align 4
  %17 = load i32, ptr %7, align 4
  %18 = getelementptr inbounds nuw %struct.LOCKTAG, ptr %10, i32 0, i32 2
  store i32 %17, ptr %18, align 4
  %19 = load i16, ptr %8, align 2
  %20 = getelementptr inbounds nuw %struct.LOCKTAG, ptr %10, i32 0, i32 3
  store i16 %19, ptr %20, align 4
  %21 = getelementptr inbounds nuw %struct.LOCKTAG, ptr %10, i32 0, i32 4
  store i8 8, ptr %21, align 2
  %22 = getelementptr inbounds nuw %struct.LOCKTAG, ptr %10, i32 0, i32 5
  store i8 1, ptr %22, align 1
  %23 = load i32, ptr %9, align 4
  %24 = call i32 @LockAcquireExtended(ptr noundef %10, i32 noundef %23, i1 noundef zeroext false, i1 noundef zeroext true, i1 noundef zeroext true, ptr noundef %11)
  store i32 %24, ptr %12, align 4
  %25 = load i32, ptr %12, align 4
  %26 = icmp eq i32 %25, 0
  br i1 %26, label %27, label %28

27:                                               ; preds = %4
  store i1 false, ptr %5, align 1
  store i32 1, ptr %13, align 4
  br label %34

28:                                               ; preds = %4
  %29 = load i32, ptr %12, align 4
  %30 = icmp ne i32 %29, 3
  br i1 %30, label %31, label %33

31:                                               ; preds = %28
  call void @AcceptInvalidationMessages()
  %32 = load ptr, ptr %11, align 8
  call void @MarkLockClear(ptr noundef %32)
  br label %33

33:                                               ; preds = %31, %28
  store i1 true, ptr %5, align 1
  store i32 1, ptr %13, align 4
  br label %34

34:                                               ; preds = %33, %27
  call void @llvm.lifetime.end.p0(i64 4, ptr %12) #6
  call void @llvm.lifetime.end.p0(i64 8, ptr %11) #6
  call void @llvm.lifetime.end.p0(i64 16, ptr %10) #6
  %35 = load i1, ptr %5, align 1
  ret i1 %35
}