; Function Attrs: nounwind uwtable
define dso_local noundef zeroext i1 @ConditionalLockSharedObject(i32 noundef %0, i32 noundef %1, i16 noundef zeroext %2, i32 noundef %3) local_unnamed_addr #1 {
  %5 = alloca %struct.LOCKTAG, align 4
  %6 = alloca ptr, align 8
  call void @llvm.lifetime.start.p0(i64 16, ptr nonnull %5) #8
  call void @llvm.lifetime.start.p0(i64 8, ptr nonnull %6) #8
  store i32 0, ptr %5, align 4
  %7 = getelementptr inbounds nuw i8, ptr %5, i64 4
  store i32 %0, ptr %7, align 4
  %8 = getelementptr inbounds nuw i8, ptr %5, i64 8
  store i32 %1, ptr %8, align 4
  %9 = getelementptr inbounds nuw i8, ptr %5, i64 12
  store i16 %2, ptr %9, align 4
  %10 = getelementptr inbounds nuw i8, ptr %5, i64 14
  store i8 8, ptr %10, align 2
  %11 = getelementptr inbounds nuw i8, ptr %5, i64 15
  store i8 1, ptr %11, align 1
  %12 = call i32 @LockAcquireExtended(ptr noundef nonnull %5, i32 noundef %3, i1 noundef zeroext false, i1 noundef zeroext true, i1 noundef zeroext true, ptr noundef nonnull %6) #8
  switch i32 %12, label %13 [
    i32 3, label %15
    i32 0, label %15
  ]

13:                                               ; preds = %4
  call void @AcceptInvalidationMessages() #8
  %14 = load ptr, ptr %6, align 8
  call void @MarkLockClear(ptr noundef %14) #8
  br label %15

15:                                               ; preds = %4, %4, %13
  %16 = icmp ne i32 %12, 0
  call void @llvm.lifetime.end.p0(i64 8, ptr nonnull %6) #8
  call void @llvm.lifetime.end.p0(i64 16, ptr nonnull %5) #8
  ret i1 %16
}